; Function Attrs: nounwind uwtable
define internal noundef i32 @_logger_parse_extw(ptr noundef %0, ptr noundef writeonly captures(none) %1) #1 {
  %3 = alloca [751 x i8], align 16
  call void @llvm.lifetime.start.p0(i64 751, ptr nonnull %3) #18
  %4 = getelementptr inbounds nuw i8, ptr %0, i64 36
  %5 = getelementptr inbounds nuw i8, ptr %0, i64 53
  %6 = getelementptr inbounds nuw i8, ptr %0, i64 50
  %7 = load i8, ptr %6, align 2, !tbaa !31
  %8 = zext i8 %7 to i64
  %9 = call zeroext i1 @uriencode(ptr noundef nonnull %5, ptr noundef nonnull %3, i64 noundef %8, i64 noundef 751) #18
  %10 = getelementptr inbounds nuw i8, ptr %0, i64 16
  %11 = load i64, ptr %10, align 8, !tbaa !91
  %12 = getelementptr inbounds nuw i8, ptr %0, i64 24
  %13 = load i64, ptr %12, align 8, !tbaa !92
  %14 = trunc i64 %13 to i32
  %15 = getelementptr inbounds nuw i8, ptr %0, i64 8
  %16 = load i64, ptr %15, align 8, !tbaa !13
  %17 = getelementptr inbounds nuw i8, ptr %0, i64 48
  %18 = load i16, ptr %17, align 4, !tbaa !33
  %19 = and i16 %18, 8
  %.not = icmp eq i16 %19, 0
  %20 = select i1 %.not, ptr @.str.24, ptr @.str.23
  %21 = load i64, ptr %4, align 8, !tbaa !93
  %22 = getelementptr inbounds nuw i8, ptr %0, i64 44
  %23 = load i32, ptr %22, align 8, !tbaa !9
  %24 = getelementptr inbounds nuw i8, ptr %0, i64 51
  %25 = load i8, ptr %24, align 1, !tbaa !31
  %26 = zext i8 %25 to i32
  %27 = getelementptr inbounds nuw i8, ptr %0, i64 52
  %28 = load i8, ptr %27, align 8, !tbaa !31
  %29 = zext i8 %28 to i32
  %30 = call i32 (ptr, i64, ptr, ...) @snprintf(ptr noundef nonnull dereferenceable(1) %1, i64 noundef 4096, ptr noundef nonnull @.str.57, i64 noundef %11, i32 noundef %14, i64 noundef %16, ptr noundef nonnull %3, ptr noundef nonnull %20, i64 noundef %21, i32 noundef %23, i32 noundef %26, i32 noundef %29) #18
  call void @llvm.lifetime.end.p0(i64 751, ptr nonnull %3) #18
  ret i32 %30
}